target datalayout = "e-m:e-p270:32:32-p271:32:32-p272:64:64-i64:64-i128:128-f80:128-n8:16:32:64-S128"
target triple = "x86_64-pc-linux-gnu"

%struct.jpeg_decompress_struct = type { ptr, ptr, ptr, ptr, i32, i32, ptr, i32, i32, i32, i32, i32, i32, i32, double, i32, i32, i32, i32, i32, i32, i32, i32, i32, i32, i32, i32, i32, i32, i32, i32, i32, i32, ptr, i32, i32, i32, i32, i32, ptr, [4 x ptr], [4 x ptr], [4 x ptr], i32, ptr, i32, i32, [16 x i8], [16 x i8], [16 x i8], i32, i32, i8, i8, i8, i16, i16, i32, i8, i32, ptr, i32, i32, i32, i32, ptr, i32, [4 x ptr], i32, i32, i32, [10 x i32], i32, i32, i32, i32, i32, ptr, ptr, ptr, ptr, ptr, ptr, ptr, ptr, ptr, ptr, ptr }
%struct.jpeg_error_mgr = type { ptr, ptr, ptr, ptr, ptr, i32, %union.anon, i32, i64, ptr, i32, ptr, i32, i32 }
%union.anon = type { [8 x i32], [48 x i8] }
%struct.jpeg_memory_mgr = type { ptr, ptr, ptr, ptr, ptr, ptr, ptr, ptr, ptr, ptr, ptr, i64, i64 }
%struct.my_merged_upsampler = type { %struct.jpeg_upsampler, ptr, ptr, ptr, ptr, ptr, ptr, i32, i32, i32 }
%struct.jpeg_upsampler = type { ptr, ptr, ptr, ptr, i32 }

; Function Attrs: nounwind uwtable
define internal void @build_ycc_rgb_table(ptr noundef %0) #0 {
  %2 = alloca ptr, align 8
  %3 = alloca ptr, align 8
  %4 = alloca i32, align 4
  %5 = alloca i64, align 8
  store ptr %0, ptr %2, align 8
  %6 = load ptr, ptr %2, align 8
  %7 = getelementptr inbounds %struct.jpeg_decompress_struct, ptr %6, i32 0, i32 85
  %8 = load ptr, ptr %7, align 8
  store ptr %8, ptr %3, align 8
  %9 = load ptr, ptr %2, align 8
  %10 = getelementptr inbounds %struct.jpeg_decompress_struct, ptr %9, i32 0, i32 1
  %11 = load ptr, ptr %10, align 8
  %12 = getelementptr inbounds %struct.jpeg_memory_mgr, ptr %11, i32 0, i32 0
  %13 = load ptr, ptr %12, align 8
  %14 = load ptr, ptr %2, align 8
  %15 = call ptr %13(ptr noundef %14, i32 noundef 1, i64 noundef 1024)
  %16 = load ptr, ptr %3, align 8
  %17 = getelementptr inbounds %struct.my_merged_upsampler, ptr %16, i32 0, i32 2
  store ptr %15, ptr %17, align 8
  %18 = load ptr, ptr %2, align 8
  %19 = getelementptr inbounds %struct.jpeg_decompress_struct, ptr %18, i32 0, i32 1
  %20 = load ptr, ptr %19, align 8
  %21 = getelementptr inbounds %struct.jpeg_memory_mgr, ptr %20, i32 0, i32 0
  %22 = load ptr, ptr %21, align 8
  %23 = load ptr, ptr %2, align 8
  %24 = call ptr %22(ptr noundef %23, i32 noundef 1, i64 noundef 1024)
  %25 = load ptr, ptr %3, align 8
  %26 = getelementptr inbounds %struct.my_merged_upsampler, ptr %25, i32 0, i32 3
  store ptr %24, ptr %26, align 8
  %27 = load ptr, ptr %2, align 8
  %28 = getelementptr inbounds %struct.jpeg_decompress_struct, ptr %27, i32 0, i32 1
  %29 = load ptr, ptr %28, align 8
  %30 = getelementptr inbounds %struct.jpeg_memory_mgr, ptr %29, i32 0, i32 0
  %31 = load ptr, ptr %30, align 8
  %32 = load ptr, ptr %2, align 8
  %33 = call ptr %31(ptr noundef %32, i32 noundef 1, i64 noundef 2048)
  %34 = load ptr, ptr %3, align 8
  %35 = getelementptr inbounds %struct.my_merged_upsampler, ptr %34, i32 0, i32 4
  store ptr %33, ptr %35, align 8
  %36 = load ptr, ptr %2, align 8
  %37 = getelementptr inbounds %struct.jpeg_decompress_struct, ptr %36, i32 0, i32 1
  %38 = load ptr, ptr %37, align 8
  %39 = getelementptr inbounds %struct.jpeg_memory_mgr, ptr %38, i32 0, i32 0
  %40 = load ptr, ptr %39, align 8
  %41 = load ptr, ptr %2, align 8
  %42 = call ptr %40(ptr noundef %41, i32 noundef 1, i64 noundef 2048)
  %43 = load ptr, ptr %3, align 8
  %44 = getelementptr inbounds %struct.my_merged_upsampler, ptr %43, i32 0, i32 5
  store ptr %42, ptr %44, align 8
  store i32 0, ptr %4, align 4
  store i64 -128, ptr %5, align 8
  br label %45

45:                                               ; preds = %88, %1
  %46 = load i32, ptr %4, align 4
  %47 = icmp sle i32 %46, 255
  br i1 %47, label %48, label %93

48:                                               ; preds = %45
  %49 = load i64, ptr %5, align 8
  %50 = mul nsw i64 91881, %49
  %51 = add nsw i64 %50, 32768
  %52 = ashr i64 %51, 16
  %53 = trunc i64 %52 to i32
  %54 = load ptr, ptr %3, align 8
  %55 = getelementptr inbounds %struct.my_merged_upsampler, ptr %54, i32 0, i32 2
  %56 = load ptr, ptr %55, align 8
  %57 = load i32, ptr %4, align 4
  %58 = sext i32 %57 to i64
  %59 = getelementptr inbounds i32, ptr %56, i64 %58
  store i32 %53, ptr %59, align 4
  %60 = load i64, ptr %5, align 8
  %61 = mul nsw i64 116130, %60
  %62 = add nsw i64 %61, 32768
  %63 = ashr i64 %62, 16
  %64 = trunc i64 %63 to i32
  %65 = load ptr, ptr %3, align 8
  %66 = getelementptr inbounds %struct.my_merged_upsampler, ptr %65, i32 0, i32 3
  %67 = load ptr, ptr %66, align 8
  %68 = load i32, ptr %4, align 4
  %69 = sext i32 %68 to i64
  %70 = getelementptr inbounds i32, ptr %67, i64 %69
  store i32 %64, ptr %70, align 4
  %71 = load i64, ptr %5, align 8
  %72 = mul nsw i64 -46802, %71
  %73 = load ptr, ptr %3, align 8
  %74 = getelementptr inbounds %struct.my_merged_upsampler, ptr %73, i32 0, i32 4
  %75 = load ptr, ptr %74, align 8
  %76 = load i32, ptr %4, align 4
  %77 = sext i32 %76 to i64
  %78 = getelementptr inbounds i64, ptr %75, i64 %77
  store i64 %72, ptr %78, align 8
  %79 = load i64, ptr %5, align 8
  %80 = mul nsw i64 -22554, %79
  %81 = add nsw i64 %80, 32768
  %82 = load ptr, ptr %3, align 8
  %83 = getelementptr inbounds %struct.my_merged_upsampler, ptr %82, i32 0, i32 5
  %84 = load ptr, ptr %83, align 8
  %85 = load i32, ptr %4, align 4
  %86 = sext i32 %85 to i64
  %87 = getelementptr inbounds i64, ptr %84, i64 %86
  store i64 %81, ptr %87, align 8
  br label %88

88:                                               ; preds = %48
  %89 = load i32, ptr %4, align 4
  %90 = add nsw i32 %89, 1
  store i32 %90, ptr %4, align 4
  %91 = load i64, ptr %5, align 8
  %92 = add nsw i64 %91, 1
  store i64 %92, ptr %5, align 8
  br label %45, !llvm.loop !27

93:                                               ; preds = %45
  ret void
}

; Function Attrs: nounwind uwtable
define void @jinit_merged_upsampler(ptr noundef %0) #0 {
  %2 = alloca ptr, align 8
  %3 = alloca ptr, align 8
  store ptr %0, ptr %2, align 8
  %4 = load ptr, ptr %2, align 8
  %5 = getelementptr inbounds %struct.jpeg_decompress_struct, ptr %4, i32 0, i32 43
  %6 = load i32, ptr %5, align 8
  %7 = icmp ne i32 %6, 8
  br i1 %7, label %8, label %27

8:                                                ; preds = %1
  %9 = load ptr, ptr %2, align 8
  %10 = getelementptr inbounds %struct.jpeg_decompress_struct, ptr %9, i32 0, i32 0
  %11 = load ptr, ptr %10, align 8
  %12 = getelementptr inbounds %struct.jpeg_error_mgr, ptr %11, i32 0, i32 5
  store i32 15, ptr %12, align 8
  %13 = load ptr, ptr %2, align 8
  %14 = getelementptr inbounds %struct.jpeg_decompress_struct, ptr %13, i32 0, i32 43
  %15 = load i32, ptr %14, align 8
  %16 = load ptr, ptr %2, align 8
  %17 = getelementptr inbounds %struct.jpeg_decompress_struct, ptr %16, i32 0, i32 0
  %18 = load ptr, ptr %17, align 8
  %19 = getelementptr inbounds %struct.jpeg_error_mgr, ptr %18, i32 0, i32 6
  %20 = getelementptr inbounds [8 x i32], ptr %19, i64 0, i64 0
  store i32 %15, ptr %20, align 4
  %21 = load ptr, ptr %2, align 8
  %22 = getelementptr inbounds %struct.jpeg_decompress_struct, ptr %21, i32 0, i32 0
  %23 = load ptr, ptr %22, align 8
  %24 = getelementptr inbounds %struct.jpeg_error_mgr, ptr %23, i32 0, i32 0
  %25 = load ptr, ptr %24, align 8
  %26 = load ptr, ptr %2, align 8
  call void %25(ptr noundef %26)
  br label %27

27:                                               ; preds = %8, %1
  %28 = load ptr, ptr %2, align 8
  %29 = getelementptr inbounds %struct.jpeg_decompress_struct, ptr %28, i32 0, i32 1
  %30 = load ptr, ptr %29, align 8
  %31 = getelementptr inbounds %struct.jpeg_memory_mgr, ptr %30, i32 0, i32 0
  %32 = load ptr, ptr %31, align 8
  %33 = load ptr, ptr %2, align 8
  %34 = call ptr %32(ptr noundef %33, i32 noundef 1, i64 noundef 104)
  store ptr %34, ptr %3, align 8
  %35 = load ptr, ptr %3, align 8
  %36 = load ptr, ptr %2, align 8
  %37 = getelementptr inbounds %struct.jpeg_decompress_struct, ptr %36, i32 0, i32 85
  store ptr %35, ptr %37, align 8
  %38 = load ptr, ptr %3, align 8
  %39 = getelementptr inbounds %struct.my_merged_upsampler, ptr %38, i32 0, i32 0
  %40 = getelementptr inbounds %struct.jpeg_upsampler, ptr %39, i32 0, i32 0
  store ptr @start_pass_merged_upsample, ptr %40, align 8
  %41 = load ptr, ptr %3, align 8
  %42 = getelementptr inbounds %struct.my_merged_upsampler, ptr %41, i32 0, i32 0
  %43 = getelementptr inbounds %struct.jpeg_upsampler, ptr %42, i32 0, i32 4
  store i32 0, ptr %43, align 8
  %44 = load ptr, ptr %2, align 8
  %45 = getelementptr inbounds %struct.jpeg_decompress_struct, ptr %44, i32 0, i32 27
  %46 = load i32, ptr %45, align 8
  %47 = load ptr, ptr %2, align 8
  %48 = getelementptr inbounds %struct.jpeg_decompress_struct, ptr %47, i32 0, i32 29
  %49 = load i32, ptr %48, align 8
  %50 = mul i32 %46, %49
  %51 = load ptr, ptr %3, align 8
  %52 = getelementptr inbounds %struct.my_merged_upsampler, ptr %51, i32 0, i32 8
  store i32 %50, ptr %52, align 4
  %53 = load ptr, ptr %2, align 8
  %54 = getelementptr inbounds %struct.jpeg_decompress_struct, ptr %53, i32 0, i32 62
  %55 = load i32, ptr %54, align 4
  %56 = icmp eq i32 %55, 2
  br i1 %56, label %57, label %101

57:                                               ; preds = %27
  %58 = load ptr, ptr %3, align 8
  %59 = getelementptr inbounds %struct.my_merged_upsampler, ptr %58, i32 0, i32 0
  %60 = getelementptr inbounds %struct.jpeg_upsampler, ptr %59, i32 0, i32 1
  store ptr @merged_2v_upsample, ptr %60, align 8
  %61 = call i32 @jsimd_can_h2v2_merged_upsample()
  %62 = icmp ne i32 %61, 0
  br i1 %62, label %63, label %66

63:                                               ; preds = %57
  %64 = load ptr, ptr %3, align 8
  %65 = getelementptr inbounds %struct.my_merged_upsampler, ptr %64, i32 0, i32 1
  store ptr @jsimd_h2v2_merged_upsample, ptr %65, align 8
  br label %69

66:                                               ; preds = %57
  %67 = load ptr, ptr %3, align 8
  %68 = getelementptr inbounds %struct.my_merged_upsampler, ptr %67, i32 0, i32 1
  store ptr @h2v2_merged_upsample, ptr %68, align 8
  br label %69

69:                                               ; preds = %66, %63
  %70 = load ptr, ptr %2, align 8
  %71 = getelementptr inbounds %struct.jpeg_decompress_struct, ptr %70, i32 0, i32 11
  %72 = load i32, ptr %71, align 8
  %73 = icmp eq i32 %72, 16
  br i1 %73, label %74, label %86

74:                                               ; preds = %69
  %75 = load ptr, ptr %2, align 8
  %76 = getelementptr inbounds %struct.jpeg_decompress_struct, ptr %75, i32 0, i32 21
  %77 = load i32, ptr %76, align 8
  %78 = icmp ne i32 %77, 0
  br i1 %78, label %79, label %82

79:                                               ; preds = %74
  %80 = load ptr, ptr %3, align 8
  %81 = getelementptr inbounds %struct.my_merged_upsampler, ptr %80, i32 0, i32 1
  store ptr @h2v2_merged_upsample_565D, ptr %81, align 8
  br label %85

82:                                               ; preds = %74
  %83 = load ptr, ptr %3, align 8
  %84 = getelementptr inbounds %struct.my_merged_upsampler, ptr %83, i32 0, i32 1
  store ptr @h2v2_merged_upsample_565, ptr %84, align 8
  br label %85

85:                                               ; preds = %82, %79
  br label %86

86:                                               ; preds = %85, %69
  %87 = load ptr, ptr %2, align 8
  %88 = getelementptr inbounds %struct.jpeg_decompress_struct, ptr %87, i32 0, i32 1
  %89 = load ptr, ptr %88, align 8
  %90 = getelementptr inbounds %struct.jpeg_memory_mgr, ptr %89, i32 0, i32 1
  %91 = load ptr, ptr %90, align 8
  %92 = load ptr, ptr %2, align 8
  %93 = load ptr, ptr %3, align 8
  %94 = getelementptr inbounds %struct.my_merged_upsampler, ptr %93, i32 0, i32 8
  %95 = load i32, ptr %94, align 4
  %96 = zext i32 %95 to i64
  %97 = mul i64 %96, 1
  %98 = call ptr %91(ptr noundef %92, i32 noundef 1, i64 noundef %97)
  %99 = load ptr, ptr %3, align 8
  %100 = getelementptr inbounds %struct.my_merged_upsampler, ptr %99, i32 0, i32 6
  store ptr %98, ptr %100, align 8
  br label %133

101:                                              ; preds = %27
  %102 = load ptr, ptr %3, align 8
  %103 = getelementptr inbounds %struct.my_merged_upsampler, ptr %102, i32 0, i32 0
  %104 = getelementptr inbounds %struct.jpeg_upsampler, ptr %103, i32 0, i32 1
  store ptr @merged_1v_upsample, ptr %104, align 8
  %105 = call i32 @jsimd_can_h2v1_merged_upsample()
  %106 = icmp ne i32 %105, 0
  br i1 %106, label %107, label %110

107:                                              ; preds = %101
  %108 = load ptr, ptr %3, align 8
  %109 = getelementptr inbounds %struct.my_merged_upsampler, ptr %108, i32 0, i32 1
  store ptr @jsimd_h2v1_merged_upsample, ptr %109, align 8
  br label %113

110:                                              ; preds = %101
  %111 = load ptr, ptr %3, align 8
  %112 = getelementptr inbounds %struct.my_merged_upsampler, ptr %111, i32 0, i32 1
  store ptr @h2v1_merged_upsample, ptr %112, align 8
  br label %113

113:                                              ; preds = %110, %107
  %114 = load ptr, ptr %2, align 8
  %115 = getelementptr inbounds %struct.jpeg_decompress_struct, ptr %114, i32 0, i32 11
  %116 = load i32, ptr %115, align 8
  %117 = icmp eq i32 %116, 16
  br i1 %117, label %118, label %130

118:                                              ; preds = %113
  %119 = load ptr, ptr %2, align 8
  %120 = getelementptr inbounds %struct.jpeg_decompress_struct, ptr %119, i32 0, i32 21
  %121 = load i32, ptr %120, align 8
  %122 = icmp ne i32 %121, 0
  br i1 %122, label %123, label %126

123:                                              ; preds = %118
  %124 = load ptr, ptr %3, align 8
  %125 = getelementptr inbounds %struct.my_merged_upsampler, ptr %124, i32 0, i32 1
  store ptr @h2v1_merged_upsample_565D, ptr %125, align 8
  br label %129

126:                                              ; preds = %118
  %127 = load ptr, ptr %3, align 8
  %128 = getelementptr inbounds %struct.my_merged_upsampler, ptr %127, i32 0, i32 1
  store ptr @h2v1_merged_upsample_565, ptr %128, align 8
  br label %129

129:                                              ; preds = %126, %123
  br label %130

130:                                              ; preds = %129, %113
  %131 = load ptr, ptr %3, align 8
  %132 = getelementptr inbounds %struct.my_merged_upsampler, ptr %131, i32 0, i32 6
  store ptr null, ptr %132, align 8
  br label %133

133:                                              ; preds = %130, %86
  %134 = load ptr, ptr %2, align 8
  call void @build_ycc_rgb_table(ptr noundef %134)
  ret void
}