; Function Attrs: nounwind uwtable
define void @jinit_merged_upsampler(ptr noundef %0) local_unnamed_addr #0 {
  %2 = getelementptr inbounds i8, ptr %0, i64 296
  %3 = load i32, ptr %2, align 8
  %.not = icmp eq i32 %3, 8
  br i1 %.not, label %12, label %4

4:                                                ; preds = %1
  %5 = load ptr, ptr %0, align 8
  %6 = getelementptr inbounds i8, ptr %5, i64 40
  store i32 15, ptr %6, align 8
  %7 = load i32, ptr %2, align 8
  %8 = load ptr, ptr %0, align 8
  %9 = getelementptr inbounds i8, ptr %8, i64 44
  store i32 %7, ptr %9, align 4
  %10 = load ptr, ptr %0, align 8
  %11 = load ptr, ptr %10, align 8
  tail call void %11(ptr noundef nonnull %0) #5
  br label %12

12:                                               ; preds = %4, %1
  %13 = getelementptr inbounds i8, ptr %0, i64 8
  %14 = load ptr, ptr %13, align 8
  %15 = load ptr, ptr %14, align 8
  %16 = tail call ptr %15(ptr noundef nonnull %0, i32 noundef 1, i64 noundef 104) #5
  %17 = getelementptr inbounds i8, ptr %0, i64 608
  store ptr %16, ptr %17, align 8
  store ptr @start_pass_merged_upsample, ptr %16, align 8
  %18 = getelementptr inbounds i8, ptr %16, i64 32
  store i32 0, ptr %18, align 8
  %19 = getelementptr inbounds i8, ptr %0, i64 136
  %20 = load i32, ptr %19, align 8
  %21 = getelementptr inbounds i8, ptr %0, i64 144
  %22 = load i32, ptr %21, align 8
  %23 = mul i32 %22, %20
  %24 = getelementptr inbounds i8, ptr %16, i64 92
  store i32 %23, ptr %24, align 4
  %25 = getelementptr inbounds i8, ptr %0, i64 412
  %26 = load i32, ptr %25, align 4
  %27 = icmp eq i32 %26, 2
  %28 = getelementptr inbounds i8, ptr %16, i64 8
  %29 = getelementptr inbounds i8, ptr %16, i64 40
  %30 = getelementptr inbounds i8, ptr %0, i64 64
  br i1 %27, label %31, label %44

31:                                               ; preds = %12
  store ptr @merged_2v_upsample, ptr %28, align 8
  %32 = tail call i32 @jsimd_can_h2v2_merged_upsample() #5
  %.not38 = icmp eq i32 %32, 0
  %spec.select = select i1 %.not38, ptr @h2v2_merged_upsample, ptr @jsimd_h2v2_merged_upsample
  store ptr %spec.select, ptr %29, align 8
  %33 = load i32, ptr %30, align 8
  %34 = icmp eq i32 %33, 16
  br i1 %34, label %.sink.split, label %37

.sink.split:                                      ; preds = %31
  %35 = getelementptr inbounds i8, ptr %0, i64 112
  %36 = load i32, ptr %35, align 8
  %.not39 = icmp eq i32 %36, 0
  %h2v2_merged_upsample_565.h2v2_merged_upsample_565D = select i1 %.not39, ptr @h2v2_merged_upsample_565, ptr @h2v2_merged_upsample_565D
  store ptr %h2v2_merged_upsample_565.h2v2_merged_upsample_565D, ptr %29, align 8
  br label %37

37:                                               ; preds = %.sink.split, %31
  %38 = load ptr, ptr %13, align 8
  %39 = getelementptr inbounds i8, ptr %38, i64 8
  %40 = load ptr, ptr %39, align 8
  %41 = load i32, ptr %24, align 4
  %42 = zext i32 %41 to i64
  %43 = tail call ptr %40(ptr noundef nonnull %0, i32 noundef 1, i64 noundef %42) #5
  br label %50

44:                                               ; preds = %12
  store ptr @merged_1v_upsample, ptr %28, align 8
  %45 = tail call i32 @jsimd_can_h2v1_merged_upsample() #5
  %.not36 = icmp eq i32 %45, 0
  %spec.select40 = select i1 %.not36, ptr @h2v1_merged_upsample, ptr @jsimd_h2v1_merged_upsample
  store ptr %spec.select40, ptr %29, align 8
  %46 = load i32, ptr %30, align 8
  %47 = icmp eq i32 %46, 16
  br i1 %47, label %.sink.split41, label %50

.sink.split41:                                    ; preds = %44
  %48 = getelementptr inbounds i8, ptr %0, i64 112
  %49 = load i32, ptr %48, align 8
  %.not37 = icmp eq i32 %49, 0
  %h2v1_merged_upsample_565.h2v1_merged_upsample_565D = select i1 %.not37, ptr @h2v1_merged_upsample_565, ptr @h2v1_merged_upsample_565D
  store ptr %h2v1_merged_upsample_565.h2v1_merged_upsample_565D, ptr %29, align 8
  br label %50

50:                                               ; preds = %44, %.sink.split41, %37
  %.sink = phi ptr [ %43, %37 ], [ null, %.sink.split41 ], [ null, %44 ]
  %51 = getelementptr inbounds i8, ptr %16, i64 80
  store ptr %.sink, ptr %51, align 8
  %52 = load ptr, ptr %17, align 8
  %53 = load ptr, ptr %13, align 8
  %54 = load ptr, ptr %53, align 8
  %55 = tail call ptr %54(ptr noundef nonnull %0, i32 noundef 1, i64 noundef 1024) #5
  %56 = getelementptr inbounds i8, ptr %52, i64 48
  store ptr %55, ptr %56, align 8
  %57 = load ptr, ptr %13, align 8
  %58 = load ptr, ptr %57, align 8
  %59 = tail call ptr %58(ptr noundef nonnull %0, i32 noundef 1, i64 noundef 1024) #5
  %60 = getelementptr inbounds i8, ptr %52, i64 56
  store ptr %59, ptr %60, align 8
  %61 = load ptr, ptr %13, align 8
  %62 = load ptr, ptr %61, align 8
  %63 = tail call ptr %62(ptr noundef nonnull %0, i32 noundef 1, i64 noundef 2048) #5
  %64 = getelementptr inbounds i8, ptr %52, i64 64
  store ptr %63, ptr %64, align 8
  %65 = load ptr, ptr %13, align 8
  %66 = load ptr, ptr %65, align 8
  %67 = tail call ptr %66(ptr noundef nonnull %0, i32 noundef 1, i64 noundef 2048) #5
  %68 = getelementptr inbounds i8, ptr %52, i64 72
  store ptr %67, ptr %68, align 8
  br label %69

69:                                               ; preds = %69, %50
  %indvars.iv.i = phi i64 [ 0, %50 ], [ %indvars.iv.next.i, %69 ]
  %.029.i = phi i64 [ -128, %50 ], [ %89, %69 ]
  %70 = mul nsw i64 %.029.i, 91881
  %71 = add nsw i64 %70, 32768
  %72 = lshr i64 %71, 16
  %73 = trunc i64 %72 to i32
  %74 = load ptr, ptr %56, align 8
  %75 = getelementptr inbounds i32, ptr %74, i64 %indvars.iv.i
  store i32 %73, ptr %75, align 4
  %76 = mul nsw i64 %.029.i, 116130
  %77 = add nsw i64 %76, 32768
  %78 = lshr i64 %77, 16
  %79 = trunc i64 %78 to i32
  %80 = load ptr, ptr %60, align 8
  %81 = getelementptr inbounds i32, ptr %80, i64 %indvars.iv.i
  store i32 %79, ptr %81, align 4
  %82 = mul nsw i64 %.029.i, -46802
  %83 = load ptr, ptr %64, align 8
  %84 = getelementptr inbounds i64, ptr %83, i64 %indvars.iv.i
  store i64 %82, ptr %84, align 8
  %85 = mul nsw i64 %.029.i, -22554
  %86 = add nsw i64 %85, 32768
  %87 = load ptr, ptr %68, align 8
  %88 = getelementptr inbounds i64, ptr %87, i64 %indvars.iv.i
  store i64 %86, ptr %88, align 8
  %indvars.iv.next.i = add nuw nsw i64 %indvars.iv.i, 1
  %89 = add nsw i64 %.029.i, 1
  %exitcond.not.i = icmp eq i64 %indvars.iv.next.i, 256
  br i1 %exitcond.not.i, label %build_ycc_rgb_table.exit, label %69, !llvm.loop !4

build_ycc_rgb_table.exit:                         ; preds = %69
  ret void
}